target datalayout = "e-m:e-p270:32:32-p271:32:32-p272:64:64-i64:64-i128:128-f80:128-n8:16:32:64-S128"
target triple = "x86_64-pc-linux-gnu"

%struct.TestConfig = type <{ i32, i8, i8, i8, i8, %"class.std::__cxx11::basic_string", %"class.std::__cxx11::basic_string", %"class.std::__cxx11::basic_string", %"class.std::__cxx11::basic_string", %"class.std::__cxx11::basic_string", i8, [7 x i8], %"class.std::__cxx11::basic_string", %"class.std::__cxx11::basic_string", i8, [7 x i8], %"class.std::__cxx11::basic_string", i8, i8, i8, i8, i8, i8, i8, i8, %"class.std::__cxx11::basic_string", %"class.std::__cxx11::basic_string", i8, [7 x i8], %"class.std::__cxx11::basic_string", %"class.std::__cxx11::basic_string", %"class.std::__cxx11::basic_string", %"class.std::__cxx11::basic_string", %"class.std::__cxx11::basic_string", i8, i8, i8, [5 x i8], %"class.std::__cxx11::basic_string", %"class.std::__cxx11::basic_string", %"class.std::__cxx11::basic_string", i8, [7 x i8], %"class.std::__cxx11::basic_string", i8, [7 x i8], %"class.std::__cxx11::basic_string", i32, i32, i32, i8, i8, i8, i8, i8, i8, [6 x i8], %"class.std::__cxx11::basic_string", %"class.std::__cxx11::basic_string", %"class.std::__cxx11::basic_string", i8, [3 x i8], i32, %"class.std::__cxx11::basic_string", %"class.std::__cxx11::basic_string", i8, i8, i8, i8, i8, i8, i8, i8, i8, i8, [6 x i8], %"class.std::__cxx11::basic_string", i8, i8, i8, i8, i8, [3 x i8], %"class.std::__cxx11::basic_string", i32, i8, i8, i8, i8, i32, i8, i8, i8, i8, i32, i8, [3 x i8] }>
%"class.std::__cxx11::basic_string" = type { %"struct.std::__cxx11::basic_string<char>::_Alloc_hider", i64, %union.anon }
%"struct.std::__cxx11::basic_string<char>::_Alloc_hider" = type { ptr }
%union.anon = type { i64, [8 x i8] }
%struct.ssl_early_callback_ctx = type { ptr, ptr, i64, ptr, i64, ptr, i64, ptr, i64, ptr, i64 }

@_ZL14g_config_index = internal global i32 0, align 4
@_ZZL12DDoSCallbackPK22ssl_early_callback_ctxE12callback_num = internal global i32 0, align 4

; Function Attrs: mustprogress uwtable
define internal noundef ptr @_ZL12GetConfigPtrPK6ssl_st(ptr noundef %0) #6 {
  %2 = alloca ptr, align 8
  store ptr %0, ptr %2, align 8, !tbaa !204
  %3 = load ptr, ptr %2, align 8, !tbaa !204
  %4 = load i32, ptr @_ZL14g_config_index, align 4, !tbaa !6
  %5 = call ptr @SSL_get_ex_data(ptr noundef %3, i32 noundef %4)
  ret ptr %5
}

; Function Attrs: mustprogress uwtable
define internal noundef i32 @_ZL12DDoSCallbackPK22ssl_early_callback_ctx(ptr noundef %0) #6 {
  %2 = alloca i32, align 4
  %3 = alloca ptr, align 8
  %4 = alloca ptr, align 8
  %5 = alloca i32, align 4
  store ptr %0, ptr %3, align 8, !tbaa !208
  call void @llvm.lifetime.start.p0(i64 8, ptr %4) #18
  %6 = load ptr, ptr %3, align 8, !tbaa !208
  %7 = getelementptr inbounds nuw %struct.ssl_early_callback_ctx, ptr %6, i32 0, i32 0
  %8 = load ptr, ptr %7, align 8, !tbaa !210
  %9 = call noundef ptr @_ZL12GetConfigPtrPK6ssl_st(ptr noundef %8)
  store ptr %9, ptr %4, align 8, !tbaa !29
  %10 = load i32, ptr @_ZZL12DDoSCallbackPK22ssl_early_callback_ctxE12callback_num, align 4, !tbaa !6
  %11 = add nsw i32 %10, 1
  store i32 %11, ptr @_ZZL12DDoSCallbackPK22ssl_early_callback_ctxE12callback_num, align 4, !tbaa !6
  %12 = load ptr, ptr %4, align 8, !tbaa !29
  %13 = getelementptr inbounds nuw %struct.TestConfig, ptr %12, i32 0, i32 54
  %14 = load i8, ptr %13, align 8, !tbaa !58, !range !23, !noundef !24
  %15 = trunc i8 %14 to i1
  br i1 %15, label %24, label %16

16:                                               ; preds = %1
  %17 = load ptr, ptr %4, align 8, !tbaa !29
  %18 = getelementptr inbounds nuw %struct.TestConfig, ptr %17, i32 0, i32 55
  %19 = load i8, ptr %18, align 1, !tbaa !59, !range !23, !noundef !24
  %20 = trunc i8 %19 to i1
  br i1 %20, label %21, label %25

21:                                               ; preds = %16
  %22 = load i32, ptr @_ZZL12DDoSCallbackPK22ssl_early_callback_ctxE12callback_num, align 4, !tbaa !6
  %23 = icmp eq i32 %22, 2
  br i1 %23, label %24, label %25

24:                                               ; preds = %21, %1
  store i32 0, ptr %2, align 4
  store i32 1, ptr %5, align 4
  br label %26

25:                                               ; preds = %21, %16
  store i32 1, ptr %2, align 4
  store i32 1, ptr %5, align 4
  br label %26

26:                                               ; preds = %25, %24
  call void @llvm.lifetime.end.p0(i64 8, ptr %4) #18
  %27 = load i32, ptr %2, align 4
  ret i32 %27
}