; Function Attrs: mustprogress uwtable
define internal noundef range(i32 0, 2) i32 @_ZL12DDoSCallbackPK22ssl_early_callback_ctx(ptr noundef readonly captures(none) %0) #10 {
  %2 = load ptr, ptr %0, align 8, !tbaa !151
  %3 = load i32, ptr @_ZL14g_config_index, align 4, !tbaa !6
  %4 = tail call noundef ptr @SSL_get_ex_data(ptr noundef %2, i32 noundef %3)
  %5 = load i32, ptr @_ZZL12DDoSCallbackPK22ssl_early_callback_ctxE12callback_num, align 4, !tbaa !6
  %6 = add nsw i32 %5, 1
  store i32 %6, ptr @_ZZL12DDoSCallbackPK22ssl_early_callback_ctxE12callback_num, align 4, !tbaa !6
  %7 = getelementptr inbounds nuw i8, ptr %4, i64 720
  %8 = load i8, ptr %7, align 8, !tbaa !187, !range !39, !noundef !40
  %9 = trunc nuw i8 %8 to i1
  br i1 %9, label %15, label %10

10:                                               ; preds = %1
  %11 = getelementptr inbounds nuw i8, ptr %4, i64 721
  %12 = load i8, ptr %11, align 1, !tbaa !188, !range !39, !noundef !40
  %13 = trunc nuw i8 %12 to i1
  %14 = icmp ne i32 %6, 2
  %not. = xor i1 %13, true
  %or.cond = select i1 %not., i1 true, i1 %14
  %spec.select = zext i1 %or.cond to i32
  br label %15

15:                                               ; preds = %10, %1
  %.0 = phi i32 [ 0, %1 ], [ %spec.select, %10 ]
  ret i32 %.0
}